; Function Attrs: mustprogress nounwind uwtable
define hidden void @_ZN23ShenandoahHeapRegionSetC2Ev(ptr nocapture noundef nonnull align 8 dereferenceable(32) %0) unnamed_addr #1 align 2 {
  %2 = load ptr, ptr @_ZN8Universe14_collectedHeapE, align 8
  store ptr %2, ptr %0, align 8
  %3 = getelementptr inbounds i8, ptr %0, i64 8
  %4 = getelementptr inbounds i8, ptr %2, i64 544
  %5 = load i64, ptr %4, align 8
  store i64 %5, ptr %3, align 8
  %6 = getelementptr inbounds i8, ptr %0, i64 16
  %7 = tail call noundef ptr @_Z12AllocateHeapm8MEMFLAGSN17AllocFailStrategy13AllocFailEnumE(i64 noundef %5, i8 noundef zeroext 5, i32 noundef 0) #7
  store ptr %7, ptr %6, align 8
  %8 = getelementptr inbounds i8, ptr %0, i64 24
  store i64 0, ptr %8, align 8
  %9 = load i64, ptr %3, align 8
  tail call void @llvm.memset.p0.i64(ptr align 1 %7, i8 0, i64 %9, i1 false)
  ret void
}